; ModuleID = '10/1511.c'
source_filename = "10/1511.c"
target datalayout = "e-m:e-p270:32:32-p271:32:32-p272:64:64-i64:64-f80:128-n8:16:32:64-S128"
target triple = "x86_64-pc-linux-gnu"

@.str = private unnamed_addr constant [3 x i8] c"%d\00", align 1

; Function Attrs: noinline nounwind uwtable
define dso_local i32 @f(i32* %0, i32 %1, i32 %2) #0 {
  %4 = alloca i32*, align 8
  %5 = alloca i32, align 4
  %6 = alloca i32, align 4
  %7 = alloca i32, align 4
  %8 = alloca i32, align 4
  %9 = alloca i32, align 4
  store i32* %0, i32** %4, align 8
  store i32 %1, i32* %5, align 4
  store i32 %2, i32* %6, align 4
  store i32 1, i32* %7, align 4
  store i32 1, i32* %8, align 4
  %10 = load i32, i32* %6, align 4
  %11 = load i32, i32* %5, align 4
  %12 = sub nsw i32 %11, 1
  %13 = icmp slt i32 %10, %12
  br i1 %13, label %14, label %55

14:                                               ; preds = %3
  %15 = load i32, i32* %6, align 4
  %16 = add nsw i32 %15, 1
  store i32 %16, i32* %9, align 4
  br label %17

17:                                               ; preds = %51, %14
  %18 = load i32, i32* %9, align 4
  %19 = load i32, i32* %5, align 4
  %20 = icmp slt i32 %18, %19
  br i1 %20, label %21, label %54

21:                                               ; preds = %17
  %22 = load i32*, i32** %4, align 8
  %23 = load i32, i32* %9, align 4
  %24 = sext i32 %23 to i64
  %25 = getelementptr inbounds i32, i32* %22, i64 %24
  %26 = load i32, i32* %25, align 4
  %27 = load i32*, i32** %4, align 8
  %28 = load i32, i32* %6, align 4
  %29 = sext i32 %28 to i64
  %30 = getelementptr inbounds i32, i32* %27, i64 %29
  %31 = load i32, i32* %30, align 4
  %32 = icmp sle i32 %26, %31
  br i1 %32, label %33, label %50

33:                                               ; preds = %21
  %34 = load i32, i32* %8, align 4
  %35 = load i32*, i32** %4, align 8
  %36 = load i32, i32* %5, align 4
  %37 = load i32, i32* %9, align 4
  %38 = call i32 @f(i32* %35, i32 %36, i32 %37)
  %39 = icmp sle i32 %34, %38
  br i1 %39, label %40, label %50

40:                                               ; preds = %33
  %41 = load i32*, i32** %4, align 8
  %42 = load i32, i32* %5, align 4
  %43 = load i32, i32* %9, align 4
  %44 = call i32 @f(i32* %41, i32 %42, i32 %43)
  %45 = add nsw i32 1, %44
  store i32 %45, i32* %7, align 4
  %46 = load i32*, i32** %4, align 8
  %47 = load i32, i32* %5, align 4
  %48 = load i32, i32* %9, align 4
  %49 = call i32 @f(i32* %46, i32 %47, i32 %48)
  store i32 %49, i32* %8, align 4
  br label %50

50:                                               ; preds = %40, %33, %21
  br label %51

51:                                               ; preds = %50
  %52 = load i32, i32* %9, align 4
  %53 = add nsw i32 %52, 1
  store i32 %53, i32* %9, align 4
  br label %17

54:                                               ; preds = %17
  br label %55

55:                                               ; preds = %54, %3
  %56 = load i32, i32* %7, align 4
  ret i32 %56
}

; Function Attrs: noinline nounwind uwtable
define dso_local i32 @main() #0 {
  %1 = alloca i32, align 4
  %2 = alloca [25 x i32], align 16
  %3 = alloca i32, align 4
  %4 = alloca i32, align 4
  %5 = alloca i32, align 4
  store i32 0, i32* %1, align 4
  %6 = call i32 (i8*, ...) @__isoc99_scanf(i8* getelementptr inbounds ([3 x i8], [3 x i8]* @.str, i64 0, i64 0), i32* %3)
  store i32 0, i32* %4, align 4
  br label %7

7:                                                ; preds = %17, %0
  %8 = load i32, i32* %4, align 4
  %9 = load i32, i32* %3, align 4
  %10 = icmp slt i32 %8, %9
  br i1 %10, label %11, label %20

11:                                               ; preds = %7
  %12 = getelementptr inbounds [25 x i32], [25 x i32]* %2, i64 0, i64 0
  %13 = load i32, i32* %4, align 4
  %14 = sext i32 %13 to i64
  %15 = getelementptr inbounds i32, i32* %12, i64 %14
  %16 = call i32 (i8*, ...) @__isoc99_scanf(i8* getelementptr inbounds ([3 x i8], [3 x i8]* @.str, i64 0, i64 0), i32* %15)
  br label %17

17:                                               ; preds = %11
  %18 = load i32, i32* %4, align 4
  %19 = add nsw i32 %18, 1
  store i32 %19, i32* %4, align 4
  br label %7

20:                                               ; preds = %7
  %21 = getelementptr inbounds [25 x i32], [25 x i32]* %2, i64 0, i64 0
  %22 = load i32, i32* %3, align 4
  %23 = call i32 @f(i32* %21, i32 %22, i32 0)
  store i32 %23, i32* %5, align 4
  store i32 1, i32* %4, align 4
  br label %24

24:                                               ; preds = %41, %20
  %25 = load i32, i32* %4, align 4
  %26 = load i32, i32* %3, align 4
  %27 = icmp slt i32 %25, %26
  br i1 %27, label %28, label %44

28:                                               ; preds = %24
  %29 = getelementptr inbounds [25 x i32], [25 x i32]* %2, i64 0, i64 0
  %30 = load i32, i32* %3, align 4
  %31 = load i32, i32* %4, align 4
  %32 = call i32 @f(i32* %29, i32 %30, i32 %31)
  %33 = load i32, i32* %5, align 4
  %34 = icmp sgt i32 %32, %33
  br i1 %34, label %35, label %40

35:                                               ; preds = %28
  %36 = getelementptr inbounds [25 x i32], [25 x i32]* %2, i64 0, i64 0
  %37 = load i32, i32* %3, align 4
  %38 = load i32, i32* %4, align 4
  %39 = call i32 @f(i32* %36, i32 %37, i32 %38)
  store i32 %39, i32* %5, align 4
  br label %40

40:                                               ; preds = %35, %28
  br label %41

41:                                               ; preds = %40
  %42 = load i32, i32* %4, align 4
  %43 = add nsw i32 %42, 1
  store i32 %43, i32* %4, align 4
  br label %24

44:                                               ; preds = %24
  %45 = load i32, i32* %5, align 4
  %46 = call i32 (i8*, ...) @printf(i8* getelementptr inbounds ([3 x i8], [3 x i8]* @.str, i64 0, i64 0), i32 %45)
  ret i32 0
}

declare dso_local i32 @__isoc99_scanf(i8*, ...) #1

declare dso_local i32 @printf(i8*, ...) #1


!llvm.module.flags = !{!0}
!llvm.ident = !{!1}

!0 = !{i32 1, !"wchar_size", i32 4}
!1 = !{!"clang version 10.0.0-4ubuntu1 "}
